; ModuleID = '47/1912.c'
source_filename = "47/1912.c"
target datalayout = "e-m:e-p270:32:32-p271:32:32-p272:64:64-i64:64-f80:128-n8:16:32:64-S128"
target triple = "x86_64-pc-linux-gnu"

@.str = private unnamed_addr constant [3 x i8] c"%d\00", align 1
@a = common dso_local global [110 x i32] zeroinitializer, align 16
@.str.1 = private unnamed_addr constant [4 x i8] c"%d \00", align 1

; Function Attrs: noinline nounwind uwtable
define dso_local i32 @main() #0 {
  %1 = alloca i32, align 4
  %2 = alloca i32, align 4
  %3 = alloca i32, align 4
  store i32 0, i32* %1, align 4
  %4 = call i32 (i8*, ...) @__isoc99_scanf(i8* getelementptr inbounds ([3 x i8], [3 x i8]* @.str, i64 0, i64 0), i32* %2)
  store i32 1, i32* %3, align 4
  br label %5

5:                                                ; preds = %16, %0
  %6 = load i32, i32* %3, align 4
  %7 = load i32, i32* %2, align 4
  %8 = icmp sle i32 %6, %7
  br i1 %8, label %9, label %19

9:                                                ; preds = %5
  %10 = load i32, i32* %2, align 4
  %11 = load i32, i32* %3, align 4
  %12 = sub nsw i32 %10, %11
  %13 = sext i32 %12 to i64
  %14 = getelementptr inbounds [110 x i32], [110 x i32]* @a, i64 0, i64 %13
  %15 = call i32 (i8*, ...) @__isoc99_scanf(i8* getelementptr inbounds ([3 x i8], [3 x i8]* @.str, i64 0, i64 0), i32* %14)
  br label %16

16:                                               ; preds = %9
  %17 = load i32, i32* %3, align 4
  %18 = add nsw i32 %17, 1
  store i32 %18, i32* %3, align 4
  br label %5

19:                                               ; preds = %5
  store i32 0, i32* %3, align 4
  br label %20

20:                                               ; preds = %31, %19
  %21 = load i32, i32* %3, align 4
  %22 = load i32, i32* %2, align 4
  %23 = sub nsw i32 %22, 1
  %24 = icmp slt i32 %21, %23
  br i1 %24, label %25, label %34

25:                                               ; preds = %20
  %26 = load i32, i32* %3, align 4
  %27 = sext i32 %26 to i64
  %28 = getelementptr inbounds [110 x i32], [110 x i32]* @a, i64 0, i64 %27
  %29 = load i32, i32* %28, align 4
  %30 = call i32 (i8*, ...) @printf(i8* getelementptr inbounds ([4 x i8], [4 x i8]* @.str.1, i64 0, i64 0), i32 %29)
  br label %31

31:                                               ; preds = %25
  %32 = load i32, i32* %3, align 4
  %33 = add nsw i32 %32, 1
  store i32 %33, i32* %3, align 4
  br label %20

34:                                               ; preds = %20
  %35 = load i32, i32* %2, align 4
  %36 = sub nsw i32 %35, 1
  %37 = sext i32 %36 to i64
  %38 = getelementptr inbounds [110 x i32], [110 x i32]* @a, i64 0, i64 %37
  %39 = load i32, i32* %38, align 4
  %40 = call i32 (i8*, ...) @printf(i8* getelementptr inbounds ([3 x i8], [3 x i8]* @.str, i64 0, i64 0), i32 %39)
  ret i32 0
}

declare dso_local i32 @__isoc99_scanf(i8*, ...) #1

declare dso_local i32 @printf(i8*, ...) #1


!llvm.module.flags = !{!0}
!llvm.ident = !{!1}

!0 = !{i32 1, !"wchar_size", i32 4}
!1 = !{!"clang version 10.0.0-4ubuntu1 "}
