; ModuleID = 'source-C-CXX/46/1912.c'
source_filename = "source-C-CXX/46/1912.c"
target datalayout = "e-m:e-p270:32:32-p271:32:32-p272:64:64-i64:64-f80:128-n8:16:32:64-S128"
target triple = "x86_64-pc-linux-gnu"

@.str = private unnamed_addr constant [3 x i8] c"%d\00", align 1
@a = dso_local global [110 x i32] zeroinitializer, align 16
@.str.1 = private unnamed_addr constant [4 x i8] c"%d \00", align 1

; Function Attrs: nofree nounwind sspstrong uwtable
define dso_local i32 @main() local_unnamed_addr #0 {
  %1 = alloca i32, align 4
  %2 = bitcast i32* %1 to i8*
  call void @llvm.lifetime.start.p0i8(i64 4, i8* nonnull %2) #3
  %3 = call i32 (i8*, ...) @__isoc99_scanf(i8* getelementptr inbounds ([3 x i8], [3 x i8]* @.str, i64 0, i64 0), i32* nonnull %1)
  %4 = load i32, i32* %1, align 4, !tbaa !5
  %5 = icmp slt i32 %4, 1
  br i1 %5, label %8, label %12

6:                                                ; preds = %12
  %7 = icmp sgt i32 %20, 1
  br i1 %7, label %22, label %8

8:                                                ; preds = %0, %6
  %9 = phi i32 [ %20, %6 ], [ %4, %0 ]
  %10 = add nsw i32 %9, -1
  %11 = sext i32 %10 to i64
  br label %32

12:                                               ; preds = %0, %12
  %13 = phi i32 [ %20, %12 ], [ %4, %0 ]
  %14 = phi i32 [ %19, %12 ], [ 1, %0 ]
  %15 = sub nsw i32 %13, %14
  %16 = sext i32 %15 to i64
  %17 = getelementptr inbounds [110 x i32], [110 x i32]* @a, i64 0, i64 %16
  %18 = call i32 (i8*, ...) @__isoc99_scanf(i8* getelementptr inbounds ([3 x i8], [3 x i8]* @.str, i64 0, i64 0), i32* nonnull %17)
  %19 = add nuw nsw i32 %14, 1
  %20 = load i32, i32* %1, align 4, !tbaa !5
  %21 = icmp sgt i32 %20, %14
  br i1 %21, label %12, label %6, !llvm.loop !9

22:                                               ; preds = %6, %22
  %23 = phi i64 [ %27, %22 ], [ 0, %6 ]
  %24 = getelementptr inbounds [110 x i32], [110 x i32]* @a, i64 0, i64 %23
  %25 = load i32, i32* %24, align 4, !tbaa !5
  %26 = call i32 (i8*, ...) @printf(i8* nonnull dereferenceable(1) getelementptr inbounds ([4 x i8], [4 x i8]* @.str.1, i64 0, i64 0), i32 %25)
  %27 = add nuw nsw i64 %23, 1
  %28 = load i32, i32* %1, align 4, !tbaa !5
  %29 = add nsw i32 %28, -1
  %30 = sext i32 %29 to i64
  %31 = icmp slt i64 %27, %30
  br i1 %31, label %22, label %32, !llvm.loop !11

32:                                               ; preds = %22, %8
  %33 = phi i64 [ %11, %8 ], [ %30, %22 ]
  %34 = getelementptr inbounds [110 x i32], [110 x i32]* @a, i64 0, i64 %33
  %35 = load i32, i32* %34, align 4, !tbaa !5
  %36 = call i32 (i8*, ...) @printf(i8* nonnull dereferenceable(1) getelementptr inbounds ([3 x i8], [3 x i8]* @.str, i64 0, i64 0), i32 %35)
  call void @llvm.lifetime.end.p0i8(i64 4, i8* nonnull %2) #3
  ret i32 0
}

; Function Attrs: argmemonly mustprogress nofree nosync nounwind willreturn
declare void @llvm.lifetime.start.p0i8(i64 immarg, i8* nocapture) #1

; Function Attrs: nofree nounwind
declare noundef i32 @__isoc99_scanf(i8* nocapture noundef readonly, ...) local_unnamed_addr #2

; Function Attrs: nofree nounwind
declare noundef i32 @printf(i8* nocapture noundef readonly, ...) local_unnamed_addr #2

; Function Attrs: argmemonly mustprogress nofree nosync nounwind willreturn
declare void @llvm.lifetime.end.p0i8(i64 immarg, i8* nocapture) #1


!llvm.module.flags = !{!0, !1, !2, !3}
!llvm.ident = !{!4}

!0 = !{i32 1, !"wchar_size", i32 4}
!1 = !{i32 7, !"PIC Level", i32 2}
!2 = !{i32 7, !"PIE Level", i32 2}
!3 = !{i32 7, !"uwtable", i32 1}
!4 = !{!"clang version 13.0.0"}
!5 = !{!6, !6, i64 0}
!6 = !{!"int", !7, i64 0}
!7 = !{!"omnipotent char", !8, i64 0}
!8 = !{!"Simple C/C++ TBAA"}
!9 = distinct !{!9, !10}
!10 = !{!"llvm.loop.mustprogress"}
!11 = distinct !{!11, !10}
